; Function Attrs: mustprogress uwtable
define void @_ZN3gmx21AbstractOptionStorage16setMaxValueCountEi(ptr noundef nonnull align 8 dereferenceable(98) %0, i32 noundef %1) local_unnamed_addr #0 align 2 personality ptr @__gxx_personality_v0 {
  %3 = alloca %"class.gmx::InvalidInputError", align 8
  %4 = alloca %"class.gmx::ExceptionInitializer", align 8
  %5 = alloca %"class.gmx::ExceptionInfo", align 8
  %6 = getelementptr inbounds nuw i8, ptr %0, i64 72
  %7 = load i64, ptr %6, align 8, !tbaa !15
  %8 = and i64 %7, 32
  %.not = icmp eq i64 %8, 0
  br i1 %.not, label %10, label %9

9:                                                ; preds = %2
  tail call void @_ZN3gmx8internal13assertHandlerEPKcS2_S2_S2_i(ptr noundef nonnull @.str.11, ptr noundef nonnull @.str.15, ptr noundef nonnull @"__PRETTY_FUNCTION__._ZZN3gmx21AbstractOptionStorage16setMaxValueCountEiENK3$_0clEv", ptr noundef nonnull @.str.1, i32 noundef 188) #30
  unreachable

10:                                               ; preds = %2
  %11 = icmp sgt i32 %1, -2
  br i1 %11, label %13, label %12

12:                                               ; preds = %10
  tail call void @_ZN3gmx8internal13assertHandlerEPKcS2_S2_S2_i(ptr noundef nonnull @.str.16, ptr noundef nonnull @.str.14, ptr noundef nonnull @"__PRETTY_FUNCTION__._ZZN3gmx21AbstractOptionStorage16setMaxValueCountEiENK3$_0clEv", ptr noundef nonnull @.str.1, i32 noundef 189) #30
  unreachable

13:                                               ; preds = %10
  %14 = getelementptr inbounds nuw i8, ptr %0, i64 92
  store i32 %1, ptr %14, align 4, !tbaa !27
  %15 = and i64 %7, 1
  %16 = icmp ne i64 %15, 0
  %17 = icmp ne i32 %1, -1
  %or.cond = and i1 %17, %16
  br i1 %or.cond, label %18, label %36

18:                                               ; preds = %13
  %19 = load ptr, ptr %0, align 8, !tbaa !3
  %20 = getelementptr inbounds nuw i8, ptr %19, i64 40
  %21 = load ptr, ptr %20, align 8
  %22 = tail call noundef i32 %21(ptr noundef nonnull align 8 dereferenceable(98) %0)
  %23 = load i32, ptr %14, align 4, !tbaa !27
  %24 = icmp sgt i32 %22, %23
  br i1 %24, label %25, label %36

25:                                               ; preds = %18
  %26 = tail call ptr @__cxa_allocate_exception(i64 24) #29
  call void @llvm.lifetime.start.p0(i64 56, ptr nonnull %4) #29
  invoke void @_ZN3gmx20ExceptionInitializerC2EPKc(ptr noundef nonnull align 8 dereferenceable(56) %4, ptr noundef nonnull @.str.5)
          to label %27 unwind label %.thread

27:                                               ; preds = %25
  invoke void @_ZN3gmx16GromacsExceptionC2ERKNS_20ExceptionInitializerE(ptr noundef nonnull align 8 dereferenceable(24) %3, ptr noundef nonnull align 8 dereferenceable(56) %4)
          to label %28 unwind label %.thread18

28:                                               ; preds = %27
  store ptr getelementptr inbounds nuw inrange(-16, 32) (i8, ptr @_ZTVN3gmx17InvalidInputErrorE, i64 16), ptr %3, align 8, !tbaa !3
  call void @llvm.lifetime.start.p0(i64 32, ptr nonnull %5) #29
  store ptr getelementptr inbounds nuw inrange(-16, 16) (i8, ptr @_ZTVN3gmx13ExceptionInfoINS_22ExceptionInfoLocation_ENS_13ThrowLocationEEE, i64 16), ptr %5, align 8, !tbaa !3
  %29 = getelementptr inbounds nuw i8, ptr %5, i64 8
  store ptr @__PRETTY_FUNCTION__._ZN3gmx21AbstractOptionStorage16setMaxValueCountEi, ptr %29, align 8, !tbaa !30
  %.sroa.4.0..sroa_idx = getelementptr inbounds nuw i8, ptr %5, i64 16
  store ptr @.str.1, ptr %.sroa.4.0..sroa_idx, align 8, !tbaa !30
  %.sroa.5.0..sroa_idx = getelementptr inbounds nuw i8, ptr %5, i64 24
  store i32 193, ptr %.sroa.5.0..sroa_idx, align 8, !tbaa !31
  invoke void @_ZN3gmxlsINS_17InvalidInputErrorENS_22ExceptionInfoLocation_ENS_13ThrowLocationEEENSt9enable_ifIXsr3stdE12is_base_of_vINS_16GromacsExceptionET_EES6_E4typeES6_RKNS_13ExceptionInfoIT0_T1_EE(ptr dead_on_unwind writable sret(%"class.gmx::InvalidInputError") align 8 %26, ptr noundef nonnull %3, ptr noundef nonnull align 8 dereferenceable(32) %5)
          to label %30 unwind label %33

30:                                               ; preds = %28
  invoke void @__cxa_throw(ptr %26, ptr nonnull @_ZTIN3gmx17InvalidInputErrorE, ptr nonnull @_ZN3gmx16GromacsExceptionD2Ev) #30
          to label %38 unwind label %33

.thread:                                          ; preds = %25
  %31 = landingpad { ptr, i32 }
          cleanup
  br label %.sink.split

.thread18:                                        ; preds = %27
  %32 = landingpad { ptr, i32 }
          cleanup
  call void @_ZN3gmx20ExceptionInitializerD2Ev(ptr noundef nonnull align 8 dereferenceable(56) %4) #29
  br label %.sink.split

33:                                               ; preds = %28, %30
  %.0 = phi i1 [ false, %30 ], [ true, %28 ]
  %34 = landingpad { ptr, i32 }
          cleanup
  call void @_ZN3gmx8internal14IExceptionInfoD2Ev(ptr noundef nonnull align 8 dereferenceable(32) %5) #29
  call void @llvm.lifetime.end.p0(i64 32, ptr nonnull %5) #29
  call void @_ZN3gmx16GromacsExceptionD2Ev(ptr noundef nonnull align 8 dereferenceable(24) %3) #29
  call void @_ZN3gmx20ExceptionInitializerD2Ev(ptr noundef nonnull align 8 dereferenceable(56) %4) #29
  call void @llvm.lifetime.end.p0(i64 56, ptr nonnull %4) #29
  br i1 %.0, label %35, label %37

.sink.split:                                      ; preds = %.thread, %.thread18
  %.pn.pn17.ph = phi { ptr, i32 } [ %32, %.thread18 ], [ %31, %.thread ]
  call void @llvm.lifetime.end.p0(i64 56, ptr nonnull %4) #29
  br label %35

35:                                               ; preds = %.sink.split, %33
  %.pn.pn17 = phi { ptr, i32 } [ %34, %33 ], [ %.pn.pn17.ph, %.sink.split ]
  call void @__cxa_free_exception(ptr %26) #29
  br label %37

36:                                               ; preds = %18, %13
  ret void

37:                                               ; preds = %33, %35
  %.pn.pn16 = phi { ptr, i32 } [ %34, %33 ], [ %.pn.pn17, %35 ]
  resume { ptr, i32 } %.pn.pn16

38:                                               ; preds = %30
  unreachable
}